target datalayout = "e-m:e-p270:32:32-p271:32:32-p272:64:64-i64:64-i128:128-f80:128-n8:16:32:64-S128"
target triple = "x86_64-pc-linux-gnu"

%struct.png_XYZ = type { i32, i32, i32, i32, i32, i32, i32, i32, i32 }
%struct.png_xy = type { i32, i32, i32, i32, i32, i32, i32, i32 }
%struct.png_colorspace = type { i32, %struct.png_xy, %struct.png_XYZ, i16, i16 }

@.str.72 = private unnamed_addr constant [10 x i8] c"profile '\00", align 1
@.str.73 = private unnamed_addr constant [4 x i8] c"': \00", align 1
@.str.74 = private unnamed_addr constant [4 x i8] c"h: \00", align 1

; Function Attrs: nounwind uwtable
define internal signext i8 @png_icc_tag_char(i32 noundef %0) #0 {
  %2 = alloca i8, align 1
  %3 = alloca i32, align 4
  store i32 %0, ptr %3, align 4
  %4 = load i32, ptr %3, align 4
  %5 = and i32 %4, 255
  store i32 %5, ptr %3, align 4
  %6 = load i32, ptr %3, align 4
  %7 = icmp uge i32 %6, 32
  br i1 %7, label %8, label %14

8:                                                ; preds = %1
  %9 = load i32, ptr %3, align 4
  %10 = icmp ule i32 %9, 126
  br i1 %10, label %11, label %14

11:                                               ; preds = %8
  %12 = load i32, ptr %3, align 4
  %13 = trunc i32 %12 to i8
  store i8 %13, ptr %2, align 1
  br label %15

14:                                               ; preds = %8, %1
  store i8 63, ptr %2, align 1
  br label %15

15:                                               ; preds = %14, %11
  %16 = load i8, ptr %2, align 1
  ret i8 %16
}

; Function Attrs: nounwind uwtable
define internal i32 @is_ICC_signature_char(i64 noundef %0) #0 {
  %2 = alloca i64, align 8
  store i64 %0, ptr %2, align 8
  %3 = load i64, ptr %2, align 8
  %4 = icmp eq i64 %3, 32
  br i1 %4, label %25, label %5

5:                                                ; preds = %1
  %6 = load i64, ptr %2, align 8
  %7 = icmp uge i64 %6, 48
  br i1 %7, label %8, label %11

8:                                                ; preds = %5
  %9 = load i64, ptr %2, align 8
  %10 = icmp ule i64 %9, 57
  br i1 %10, label %25, label %11

11:                                               ; preds = %8, %5
  %12 = load i64, ptr %2, align 8
  %13 = icmp uge i64 %12, 65
  br i1 %13, label %14, label %17

14:                                               ; preds = %11
  %15 = load i64, ptr %2, align 8
  %16 = icmp ule i64 %15, 90
  br i1 %16, label %25, label %17

17:                                               ; preds = %14, %11
  %18 = load i64, ptr %2, align 8
  %19 = icmp uge i64 %18, 97
  br i1 %19, label %20, label %23

20:                                               ; preds = %17
  %21 = load i64, ptr %2, align 8
  %22 = icmp ule i64 %21, 122
  br label %23

23:                                               ; preds = %20, %17
  %24 = phi i1 [ false, %17 ], [ %22, %20 ]
  br label %25

25:                                               ; preds = %23, %14, %8, %1
  %26 = phi i1 [ true, %14 ], [ true, %8 ], [ true, %1 ], [ %24, %23 ]
  %27 = zext i1 %26 to i32
  ret i32 %27
}

; Function Attrs: nounwind uwtable
define internal void @png_icc_tag_name(ptr noundef %0, i32 noundef %1) #0 {
  %3 = alloca ptr, align 8
  %4 = alloca i32, align 4
  store ptr %0, ptr %3, align 8
  store i32 %1, ptr %4, align 4
  %5 = load ptr, ptr %3, align 8
  %6 = getelementptr inbounds i8, ptr %5, i64 0
  store i8 39, ptr %6, align 1
  %7 = load i32, ptr %4, align 4
  %8 = lshr i32 %7, 24
  %9 = call signext i8 @png_icc_tag_char(i32 noundef %8)
  %10 = load ptr, ptr %3, align 8
  %11 = getelementptr inbounds i8, ptr %10, i64 1
  store i8 %9, ptr %11, align 1
  %12 = load i32, ptr %4, align 4
  %13 = lshr i32 %12, 16
  %14 = call signext i8 @png_icc_tag_char(i32 noundef %13)
  %15 = load ptr, ptr %3, align 8
  %16 = getelementptr inbounds i8, ptr %15, i64 2
  store i8 %14, ptr %16, align 1
  %17 = load i32, ptr %4, align 4
  %18 = lshr i32 %17, 8
  %19 = call signext i8 @png_icc_tag_char(i32 noundef %18)
  %20 = load ptr, ptr %3, align 8
  %21 = getelementptr inbounds i8, ptr %20, i64 3
  store i8 %19, ptr %21, align 1
  %22 = load i32, ptr %4, align 4
  %23 = call signext i8 @png_icc_tag_char(i32 noundef %22)
  %24 = load ptr, ptr %3, align 8
  %25 = getelementptr inbounds i8, ptr %24, i64 4
  store i8 %23, ptr %25, align 1
  %26 = load ptr, ptr %3, align 8
  %27 = getelementptr inbounds i8, ptr %26, i64 5
  store i8 39, ptr %27, align 1
  ret void
}

; Function Attrs: nounwind uwtable
define internal i32 @is_ICC_signature(i64 noundef %0) #0 {
  %2 = alloca i64, align 8
  store i64 %0, ptr %2, align 8
  %3 = load i64, ptr %2, align 8
  %4 = lshr i64 %3, 24
  %5 = call i32 @is_ICC_signature_char(i64 noundef %4)
  %6 = icmp ne i32 %5, 0
  br i1 %6, label %7, label %24

7:                                                ; preds = %1
  %8 = load i64, ptr %2, align 8
  %9 = lshr i64 %8, 16
  %10 = and i64 %9, 255
  %11 = call i32 @is_ICC_signature_char(i64 noundef %10)
  %12 = icmp ne i32 %11, 0
  br i1 %12, label %13, label %24

13:                                               ; preds = %7
  %14 = load i64, ptr %2, align 8
  %15 = lshr i64 %14, 8
  %16 = and i64 %15, 255
  %17 = call i32 @is_ICC_signature_char(i64 noundef %16)
  %18 = icmp ne i32 %17, 0
  br i1 %18, label %19, label %24

19:                                               ; preds = %13
  %20 = load i64, ptr %2, align 8
  %21 = and i64 %20, 255
  %22 = call i32 @is_ICC_signature_char(i64 noundef %21)
  %23 = icmp ne i32 %22, 0
  br label %24

24:                                               ; preds = %19, %13, %7, %1
  %25 = phi i1 [ false, %13 ], [ false, %7 ], [ false, %1 ], [ %23, %19 ]
  %26 = zext i1 %25 to i32
  ret i32 %26
}

; Function Attrs: nounwind uwtable
define internal i32 @png_icc_profile_error(ptr noalias noundef %0, ptr noalias noundef %1, ptr noundef %2, i64 noundef %3, ptr noundef %4) #0 {
  %6 = alloca ptr, align 8
  %7 = alloca ptr, align 8
  %8 = alloca ptr, align 8
  %9 = alloca i64, align 8
  %10 = alloca ptr, align 8
  %11 = alloca i64, align 8
  %12 = alloca [196 x i8], align 16
  %13 = alloca [24 x i8], align 16
  store ptr %0, ptr %6, align 8
  store ptr %1, ptr %7, align 8
  store ptr %2, ptr %8, align 8
  store i64 %3, ptr %9, align 8
  store ptr %4, ptr %10, align 8
  %14 = load ptr, ptr %7, align 8
  %15 = icmp ne ptr %14, null
  br i1 %15, label %16, label %23

16:                                               ; preds = %5
  %17 = load ptr, ptr %7, align 8
  %18 = getelementptr inbounds %struct.png_colorspace, ptr %17, i32 0, i32 4
  %19 = load i16, ptr %18, align 2
  %20 = zext i16 %19 to i32
  %21 = or i32 %20, 32768
  %22 = trunc i32 %21 to i16
  store i16 %22, ptr %18, align 2
  br label %23

23:                                               ; preds = %16, %5
  %24 = getelementptr inbounds [196 x i8], ptr %12, i64 0, i64 0
  %25 = call i64 @png_safecat(ptr noundef %24, i64 noundef 196, i64 noundef 0, ptr noundef @.str.72)
  store i64 %25, ptr %11, align 8
  %26 = getelementptr inbounds [196 x i8], ptr %12, i64 0, i64 0
  %27 = load i64, ptr %11, align 8
  %28 = add i64 %27, 79
  %29 = load i64, ptr %11, align 8
  %30 = load ptr, ptr %8, align 8
  %31 = call i64 @png_safecat(ptr noundef %26, i64 noundef %28, i64 noundef %29, ptr noundef %30)
  store i64 %31, ptr %11, align 8
  %32 = getelementptr inbounds [196 x i8], ptr %12, i64 0, i64 0
  %33 = load i64, ptr %11, align 8
  %34 = call i64 @png_safecat(ptr noundef %32, i64 noundef 196, i64 noundef %33, ptr noundef @.str.73)
  store i64 %34, ptr %11, align 8
  %35 = load i64, ptr %9, align 8
  %36 = call i32 @is_ICC_signature(i64 noundef %35)
  %37 = icmp ne i32 %36, 0
  br i1 %37, label %38, label %52

38:                                               ; preds = %23
  %39 = getelementptr inbounds [196 x i8], ptr %12, i64 0, i64 0
  %40 = load i64, ptr %11, align 8
  %41 = getelementptr inbounds i8, ptr %39, i64 %40
  %42 = load i64, ptr %9, align 8
  %43 = trunc i64 %42 to i32
  call void @png_icc_tag_name(ptr noundef %41, i32 noundef %43)
  %44 = load i64, ptr %11, align 8
  %45 = add i64 %44, 6
  store i64 %45, ptr %11, align 8
  %46 = load i64, ptr %11, align 8
  %47 = add i64 %46, 1
  store i64 %47, ptr %11, align 8
  %48 = getelementptr inbounds [196 x i8], ptr %12, i64 0, i64 %46
  store i8 58, ptr %48, align 1
  %49 = load i64, ptr %11, align 8
  %50 = add i64 %49, 1
  store i64 %50, ptr %11, align 8
  %51 = getelementptr inbounds [196 x i8], ptr %12, i64 0, i64 %49
  store i8 32, ptr %51, align 1
  br label %64

52:                                               ; preds = %23
  %53 = getelementptr inbounds [196 x i8], ptr %12, i64 0, i64 0
  %54 = load i64, ptr %11, align 8
  %55 = getelementptr inbounds [24 x i8], ptr %13, i64 0, i64 0
  %56 = getelementptr inbounds [24 x i8], ptr %13, i64 0, i64 0
  %57 = getelementptr inbounds i8, ptr %56, i64 24
  %58 = load i64, ptr %9, align 8
  %59 = call ptr @png_format_number(ptr noundef %55, ptr noundef %57, i32 noundef 3, i64 noundef %58)
  %60 = call i64 @png_safecat(ptr noundef %53, i64 noundef 196, i64 noundef %54, ptr noundef %59)
  store i64 %60, ptr %11, align 8
  %61 = getelementptr inbounds [196 x i8], ptr %12, i64 0, i64 0
  %62 = load i64, ptr %11, align 8
  %63 = call i64 @png_safecat(ptr noundef %61, i64 noundef 196, i64 noundef %62, ptr noundef @.str.74)
  store i64 %63, ptr %11, align 8
  br label %64

64:                                               ; preds = %52, %38
  %65 = getelementptr inbounds [196 x i8], ptr %12, i64 0, i64 0
  %66 = load i64, ptr %11, align 8
  %67 = load ptr, ptr %10, align 8
  %68 = call i64 @png_safecat(ptr noundef %65, i64 noundef 196, i64 noundef %66, ptr noundef %67)
  store i64 %68, ptr %11, align 8
  %69 = load ptr, ptr %6, align 8
  %70 = getelementptr inbounds [196 x i8], ptr %12, i64 0, i64 0
  %71 = load ptr, ptr %7, align 8
  %72 = icmp ne ptr %71, null
  %73 = select i1 %72, i32 2, i32 1
  call void @png_chunk_report(ptr noundef %69, ptr noundef %70, i32 noundef %73)
  ret i32 0
}