; Function Attrs: nounwind uwtable
define internal fastcc void @png_icc_profile_error(ptr noalias noundef %0, ptr noalias noundef %1, ptr noundef %2, i64 noundef %3, ptr noundef %4) unnamed_addr #0 {
  %6 = alloca [196 x i8], align 16
  %7 = alloca [24 x i8], align 16
  %.not = icmp eq ptr %1, null
  br i1 %.not, label %12, label %8

8:                                                ; preds = %5
  %9 = getelementptr inbounds i8, ptr %1, i64 74
  %10 = load i16, ptr %9, align 2
  %11 = or i16 %10, -32768
  store i16 %11, ptr %9, align 2
  br label %12

12:                                               ; preds = %8, %5
  %13 = call i64 @png_safecat(ptr noundef nonnull %6, i64 noundef 196, i64 noundef 0, ptr noundef nonnull @.str.72) #29
  %14 = add i64 %13, 79
  %15 = call i64 @png_safecat(ptr noundef nonnull %6, i64 noundef %14, i64 noundef %13, ptr noundef %2) #29
  %16 = call i64 @png_safecat(ptr noundef nonnull %6, i64 noundef 196, i64 noundef %15, ptr noundef nonnull @.str.73) #29
  %17 = lshr i64 %3, 24
  %18 = icmp ne i64 %17, 32
  %19 = add nsw i64 %17, -58
  %or.cond.i.i = icmp ult i64 %19, -10
  %or.cond10.i.not16.i = and i1 %18, %or.cond.i.i
  %20 = and i64 %17, 1099511627743
  %21 = add nsw i64 %20, -91
  %22 = icmp ult i64 %21, -26
  %narrow.i.not.i = and i1 %or.cond10.i.not16.i, %22
  br i1 %narrow.i.not.i, label %is_ICC_signature.exit.thread, label %23

23:                                               ; preds = %12
  %24 = lshr i64 %3, 16
  %25 = and i64 %24, 255
  %26 = icmp ne i64 %25, 32
  %27 = add nsw i64 %25, -58
  %or.cond.i6.i = icmp ult i64 %27, -10
  %or.cond10.i7.not18.i = and i1 %26, %or.cond.i6.i
  %28 = and i64 %24, 223
  %29 = add nsw i64 %28, -91
  %30 = icmp ult i64 %29, -26
  %narrow.i8.not.i = and i1 %30, %or.cond10.i7.not18.i
  br i1 %narrow.i8.not.i, label %is_ICC_signature.exit.thread, label %31

31:                                               ; preds = %23
  %32 = lshr i64 %3, 8
  %33 = and i64 %32, 255
  %34 = icmp ne i64 %33, 32
  %35 = add nsw i64 %33, -58
  %or.cond.i9.i = icmp ult i64 %35, -10
  %or.cond10.i10.not20.i = and i1 %34, %or.cond.i9.i
  %36 = and i64 %32, 223
  %37 = add nsw i64 %36, -91
  %38 = icmp ult i64 %37, -26
  %narrow.i11.not.i = and i1 %38, %or.cond10.i10.not20.i
  br i1 %narrow.i11.not.i, label %is_ICC_signature.exit.thread, label %is_ICC_signature.exit

is_ICC_signature.exit:                            ; preds = %31
  %39 = and i64 %3, 255
  %40 = icmp ne i64 %39, 32
  %41 = add nsw i64 %39, -58
  %or.cond.i12.i = icmp ult i64 %41, -10
  %or.cond10.i13.i.not25 = and i1 %40, %or.cond.i12.i
  %42 = and i64 %3, 223
  %43 = add nsw i64 %42, -91
  %44 = icmp ult i64 %43, -26
  %narrow.i14.i.not = and i1 %44, %or.cond10.i13.i.not25
  br i1 %narrow.i14.i.not, label %is_ICC_signature.exit.thread, label %45

45:                                               ; preds = %is_ICC_signature.exit
  %46 = getelementptr inbounds i8, ptr %6, i64 %16
  %47 = trunc i64 %3 to i32
  store i8 39, ptr %46, align 1
  %48 = lshr i32 %47, 24
  %49 = add nsw i32 %48, -32
  %or.cond.i.i20 = icmp ult i32 %49, 95
  %50 = trunc nuw i32 %48 to i8
  %.0.i.i = select i1 %or.cond.i.i20, i8 %50, i8 63
  %51 = getelementptr inbounds i8, ptr %46, i64 1
  store i8 %.0.i.i, ptr %51, align 1
  %52 = lshr i32 %47, 16
  %53 = and i32 %52, 255
  %54 = add nsw i32 %53, -32
  %or.cond.i9.i21 = icmp ult i32 %54, 95
  %55 = trunc i32 %52 to i8
  %.0.i10.i = select i1 %or.cond.i9.i21, i8 %55, i8 63
  %56 = getelementptr inbounds i8, ptr %46, i64 2
  store i8 %.0.i10.i, ptr %56, align 1
  %57 = lshr i32 %47, 8
  %58 = and i32 %57, 255
  %59 = add nsw i32 %58, -32
  %or.cond.i11.i = icmp ult i32 %59, 95
  %60 = trunc i32 %57 to i8
  %.0.i12.i = select i1 %or.cond.i11.i, i8 %60, i8 63
  %61 = getelementptr inbounds i8, ptr %46, i64 3
  store i8 %.0.i12.i, ptr %61, align 1
  %62 = and i32 %47, 255
  %63 = add nsw i32 %62, -32
  %or.cond.i13.i = icmp ult i32 %63, 95
  %64 = trunc i64 %3 to i8
  %.0.i14.i = select i1 %or.cond.i13.i, i8 %64, i8 63
  %65 = getelementptr inbounds i8, ptr %46, i64 4
  store i8 %.0.i14.i, ptr %65, align 1
  %66 = getelementptr inbounds i8, ptr %46, i64 5
  store i8 39, ptr %66, align 1
  %67 = add i64 %16, 6
  %68 = add i64 %16, 7
  %69 = getelementptr inbounds [196 x i8], ptr %6, i64 0, i64 %67
  store i8 58, ptr %69, align 1
  %70 = add i64 %16, 8
  %71 = getelementptr inbounds [196 x i8], ptr %6, i64 0, i64 %68
  store i8 32, ptr %71, align 1
  br label %76

is_ICC_signature.exit.thread:                     ; preds = %12, %23, %31, %is_ICC_signature.exit
  %72 = getelementptr inbounds i8, ptr %7, i64 24
  %73 = call ptr @png_format_number(ptr noundef nonnull %7, ptr noundef nonnull %72, i32 noundef 3, i64 noundef %3) #29
  %74 = call i64 @png_safecat(ptr noundef nonnull %6, i64 noundef 196, i64 noundef %16, ptr noundef %73) #29
  %75 = call i64 @png_safecat(ptr noundef nonnull %6, i64 noundef 196, i64 noundef %74, ptr noundef nonnull @.str.74) #29
  br label %76

76:                                               ; preds = %is_ICC_signature.exit.thread, %45
  %.0 = phi i64 [ %70, %45 ], [ %75, %is_ICC_signature.exit.thread ]
  %77 = call i64 @png_safecat(ptr noundef nonnull %6, i64 noundef 196, i64 noundef %.0, ptr noundef %4) #29
  %78 = select i1 %.not, i32 1, i32 2
  call void @png_chunk_report(ptr noundef %0, ptr noundef nonnull %6, i32 noundef %78) #29
  ret void
}